; Function Attrs: mustprogress uwtable
define void @_ZN7Imf_3_211StdOFStreamC2EPKc(ptr noundef nonnull align 8 dereferenceable(49) %this, ptr noundef %fileName) unnamed_addr #3 align 2 personality ptr @__gxx_personality_v0 {
entry:
  tail call void @_ZN7Imf_3_27OStreamC2EPKc(ptr noundef nonnull align 8 dereferenceable(40) %this, ptr noundef %fileName)
  store ptr getelementptr inbounds ({ [7 x ptr] }, ptr @_ZTVN7Imf_3_211StdOFStreamE, i64 0, i32 0, i64 2), ptr %this, align 8
  %_os = getelementptr inbounds i8, ptr %this, i64 40
  %call.i2 = invoke noalias noundef nonnull dereferenceable(512) ptr @_Znwm(i64 noundef 512) #9
          to label %call.i.noexc unwind label %lpad

call.i.noexc:                                     ; preds = %entry
  invoke void @_ZNSt14basic_ofstreamIcSt11char_traitsIcEEC1EPKcSt13_Ios_Openmode(ptr noundef nonnull align 8 dereferenceable(248) %call.i2, ptr noundef %fileName, i32 noundef 4)
          to label %invoke.cont unwind label %lpad.i

lpad.i:                                           ; preds = %call.i.noexc
  %0 = landingpad { ptr, i32 }
          cleanup
  tail call void @_ZdlPv(ptr noundef nonnull %call.i2) #10
  br label %lpad.body

invoke.cont:                                      ; preds = %call.i.noexc
  store ptr %call.i2, ptr %_os, align 8
  %_deleteStream = getelementptr inbounds i8, ptr %this, i64 48
  store i8 1, ptr %_deleteStream, align 8
  %vtable = load ptr, ptr %call.i2, align 8
  %vbase.offset.ptr = getelementptr i8, ptr %vtable, i64 -24
  %vbase.offset = load i64, ptr %vbase.offset.ptr, align 8
  %add.ptr = getelementptr inbounds i8, ptr %call.i2, i64 %vbase.offset
  %call4 = invoke noundef zeroext i1 @_ZNKSt9basic_iosIcSt11char_traitsIcEEntEv(ptr noundef nonnull align 8 dereferenceable(264) %add.ptr)
          to label %invoke.cont3 unwind label %lpad

invoke.cont3:                                     ; preds = %invoke.cont
  br i1 %call4, label %if.then, label %if.end

if.then:                                          ; preds = %invoke.cont3
  %1 = load ptr, ptr %_os, align 8
  %isnull = icmp eq ptr %1, null
  br i1 %isnull, label %delete.end, label %delete.notnull

delete.notnull:                                   ; preds = %if.then
  %vtable6 = load ptr, ptr %1, align 8
  %vfn = getelementptr inbounds i8, ptr %vtable6, i64 8
  %2 = load ptr, ptr %vfn, align 8
  tail call void %2(ptr noundef nonnull align 8 dereferenceable(248) %1) #11
  br label %delete.end

delete.end:                                       ; preds = %delete.notnull, %if.then
  invoke void @_ZN7Iex_3_213throwErrnoExcEv()
          to label %if.end unwind label %lpad

lpad:                                             ; preds = %entry, %delete.end, %invoke.cont
  %3 = landingpad { ptr, i32 }
          cleanup
  br label %lpad.body

lpad.body:                                        ; preds = %lpad.i, %lpad
  %eh.lpad-body = phi { ptr, i32 } [ %3, %lpad ], [ %0, %lpad.i ]
  tail call void @_ZN7Imf_3_27OStreamD2Ev(ptr noundef nonnull align 8 dereferenceable(40) %this) #11
  resume { ptr, i32 } %eh.lpad-body

if.end:                                           ; preds = %delete.end, %invoke.cont3
  ret void
}